
ED2-Laboratorio1.elf:     file format elf32-avr

Sections:
Idx Name          Size      VMA       LMA       File off  Algn
  0 .data         00000012  00800100  00000296  0000032a  2**0
                  CONTENTS, ALLOC, LOAD, DATA
  1 .text         00000296  00000000  00000000  00000094  2**1
                  CONTENTS, ALLOC, LOAD, READONLY, CODE
  2 .bss          00000006  00800112  00800112  0000033c  2**0
                  ALLOC
  3 .comment      00000030  00000000  00000000  0000033c  2**0
                  CONTENTS, READONLY
  4 .note.gnu.avr.deviceinfo 00000040  00000000  00000000  0000036c  2**2
                  CONTENTS, READONLY
  5 .debug_aranges 00000070  00000000  00000000  000003ac  2**0
                  CONTENTS, READONLY, DEBUGGING
  6 .debug_info   00000898  00000000  00000000  0000041c  2**0
                  CONTENTS, READONLY, DEBUGGING
  7 .debug_abbrev 000006fa  00000000  00000000  00000cb4  2**0
                  CONTENTS, READONLY, DEBUGGING
  8 .debug_line   00000483  00000000  00000000  000013ae  2**0
                  CONTENTS, READONLY, DEBUGGING
  9 .debug_frame  000000dc  00000000  00000000  00001834  2**2
                  CONTENTS, READONLY, DEBUGGING
 10 .debug_str    0000042d  00000000  00000000  00001910  2**0
                  CONTENTS, READONLY, DEBUGGING
 11 .debug_loc    000000e7  00000000  00000000  00001d3d  2**0
                  CONTENTS, READONLY, DEBUGGING
 12 .debug_ranges 00000050  00000000  00000000  00001e24  2**0
                  CONTENTS, READONLY, DEBUGGING

Disassembly of section .text:

00000000 <__vectors>:
   0:	0c 94 34 00 	jmp	0x68	; 0x68 <__ctors_end>
   4:	0c 94 51 00 	jmp	0xa2	; 0xa2 <__bad_interrupt>
   8:	0c 94 51 00 	jmp	0xa2	; 0xa2 <__bad_interrupt>
   c:	0c 94 51 00 	jmp	0xa2	; 0xa2 <__bad_interrupt>
  10:	0c 94 d3 00 	jmp	0x1a6	; 0x1a6 <__vector_4>
  14:	0c 94 51 00 	jmp	0xa2	; 0xa2 <__bad_interrupt>
  18:	0c 94 51 00 	jmp	0xa2	; 0xa2 <__bad_interrupt>
  1c:	0c 94 51 00 	jmp	0xa2	; 0xa2 <__bad_interrupt>
  20:	0c 94 51 00 	jmp	0xa2	; 0xa2 <__bad_interrupt>
  24:	0c 94 51 00 	jmp	0xa2	; 0xa2 <__bad_interrupt>
  28:	0c 94 51 00 	jmp	0xa2	; 0xa2 <__bad_interrupt>
  2c:	0c 94 51 00 	jmp	0xa2	; 0xa2 <__bad_interrupt>
  30:	0c 94 51 00 	jmp	0xa2	; 0xa2 <__bad_interrupt>
  34:	0c 94 3a 01 	jmp	0x274	; 0x274 <__vector_13>
  38:	0c 94 51 00 	jmp	0xa2	; 0xa2 <__bad_interrupt>
  3c:	0c 94 51 00 	jmp	0xa2	; 0xa2 <__bad_interrupt>
  40:	0c 94 23 01 	jmp	0x246	; 0x246 <__vector_16>
  44:	0c 94 51 00 	jmp	0xa2	; 0xa2 <__bad_interrupt>
  48:	0c 94 51 00 	jmp	0xa2	; 0xa2 <__bad_interrupt>
  4c:	0c 94 51 00 	jmp	0xa2	; 0xa2 <__bad_interrupt>
  50:	0c 94 51 00 	jmp	0xa2	; 0xa2 <__bad_interrupt>
  54:	0c 94 51 00 	jmp	0xa2	; 0xa2 <__bad_interrupt>
  58:	0c 94 51 00 	jmp	0xa2	; 0xa2 <__bad_interrupt>
  5c:	0c 94 51 00 	jmp	0xa2	; 0xa2 <__bad_interrupt>
  60:	0c 94 51 00 	jmp	0xa2	; 0xa2 <__bad_interrupt>
  64:	0c 94 51 00 	jmp	0xa2	; 0xa2 <__bad_interrupt>

00000068 <__ctors_end>:
  68:	11 24       	eor	r1, r1
  6a:	1f be       	out	0x3f, r1	; 63
  6c:	cf ef       	ldi	r28, 0xFF	; 255
  6e:	d8 e0       	ldi	r29, 0x08	; 8
  70:	de bf       	out	0x3e, r29	; 62
  72:	cd bf       	out	0x3d, r28	; 61

00000074 <__do_copy_data>:
  74:	11 e0       	ldi	r17, 0x01	; 1
  76:	a0 e0       	ldi	r26, 0x00	; 0
  78:	b1 e0       	ldi	r27, 0x01	; 1
  7a:	e6 e9       	ldi	r30, 0x96	; 150
  7c:	f2 e0       	ldi	r31, 0x02	; 2
  7e:	02 c0       	rjmp	.+4      	; 0x84 <__do_copy_data+0x10>
  80:	05 90       	lpm	r0, Z+
  82:	0d 92       	st	X+, r0
  84:	a2 31       	cpi	r26, 0x12	; 18
  86:	b1 07       	cpc	r27, r17
  88:	d9 f7       	brne	.-10     	; 0x80 <__do_copy_data+0xc>

0000008a <__do_clear_bss>:
  8a:	21 e0       	ldi	r18, 0x01	; 1
  8c:	a2 e1       	ldi	r26, 0x12	; 18
  8e:	b1 e0       	ldi	r27, 0x01	; 1
  90:	01 c0       	rjmp	.+2      	; 0x94 <.do_clear_bss_start>

00000092 <.do_clear_bss_loop>:
  92:	1d 92       	st	X+, r1

00000094 <.do_clear_bss_start>:
  94:	a8 31       	cpi	r26, 0x18	; 24
  96:	b2 07       	cpc	r27, r18
  98:	e1 f7       	brne	.-8      	; 0x92 <.do_clear_bss_loop>
  9a:	0e 94 b5 00 	call	0x16a	; 0x16a <main>
  9e:	0c 94 49 01 	jmp	0x292	; 0x292 <_exit>

000000a2 <__bad_interrupt>:
  a2:	0c 94 00 00 	jmp	0	; 0x0 <__vectors>

000000a6 <mostrar_display>:
#include "display7seg.h"
uint8_t Tabla7seg[] = {0x40, 0x79, 0x24, 0x30, 0x19, 0x12, 0x02, 0x78, 0x00, 0x10, 0x08, 0x03, 0x46, 0x21, 0x06, 0x0E};

void mostrar_display(int numero)
{
	PORTD = Tabla7seg[numero & 0x0F];
  a6:	8f 70       	andi	r24, 0x0F	; 15
  a8:	99 27       	eor	r25, r25
  aa:	fc 01       	movw	r30, r24
  ac:	e0 50       	subi	r30, 0x00	; 0
  ae:	ff 4f       	sbci	r31, 0xFF	; 255
  b0:	80 81       	ld	r24, Z
  b2:	8b b9       	out	0x0b, r24	; 11
  b4:	08 95       	ret

000000b6 <setup>:

/****************************************/
// Subrutinas sin Interrupcion
void setup()
{
	cli();
  b6:	f8 94       	cli
	SPCR = 0x00; // Asegura que el SPI esté desactivado
  b8:	1c bc       	out	0x2c, r1	; 44
	// Configuración de puertos
	DDRB = 0xFF;		// PORT B como salida
  ba:	8f ef       	ldi	r24, 0xFF	; 255
  bc:	84 b9       	out	0x04, r24	; 4
	DDRD = 0xFF;		// PORT D como salida
  be:	8a b9       	out	0x0a, r24	; 10
	DDRC &= ~((1 << PORTC0) | (1 << PORTC1) | (1 << PORTC2));	// entradas del PORTC
  c0:	87 b1       	in	r24, 0x07	; 7
  c2:	88 7f       	andi	r24, 0xF8	; 248
  c4:	87 b9       	out	0x07, r24	; 7
	PORTC |= (1 << PORTC0) | (1 << PORTC1) | (1 << PORTC2);		// pull-ups
  c6:	88 b1       	in	r24, 0x08	; 8
  c8:	87 60       	ori	r24, 0x07	; 7
  ca:	88 b9       	out	0x08, r24	; 8
	
	// Habilitar interrupciones en el puerto C
	PCMSK1 |= (1 << PCINT8) | (1 << PCINT9) | (1 << PCINT10);
  cc:	ec e6       	ldi	r30, 0x6C	; 108
  ce:	f0 e0       	ldi	r31, 0x00	; 0
  d0:	80 81       	ld	r24, Z
  d2:	87 60       	ori	r24, 0x07	; 7
  d4:	80 83       	st	Z, r24
	PCICR |= (1 << PCIE1);
  d6:	e8 e6       	ldi	r30, 0x68	; 104
  d8:	f0 e0       	ldi	r31, 0x00	; 0
  da:	80 81       	ld	r24, Z
  dc:	82 60       	ori	r24, 0x02	; 2
  de:	80 83       	st	Z, r24
	
	// Habilitar interrupciones del TIMER0
	TCCR0A = 0x00;		// Modo Normal
  e0:	14 bc       	out	0x24, r1	; 36
	TCCR0B = (1 << CS01) ;   //Prescaler 8
  e2:	82 e0       	ldi	r24, 0x02	; 2
  e4:	85 bd       	out	0x25, r24	; 37
	TCNT0 = 131;
  e6:	83 e8       	ldi	r24, 0x83	; 131
  e8:	86 bd       	out	0x26, r24	; 38
	TIMSK0 = (1 << TOIE0);
  ea:	81 e0       	ldi	r24, 0x01	; 1
  ec:	80 93 6e 00 	sts	0x006E, r24	; 0x80006e <__TEXT_REGION_LENGTH__+0x7f806e>
	
	// Habilitar interrupciones del TIMER1
	TCCR1A = 0x00;		// Modo Normal
  f0:	10 92 80 00 	sts	0x0080, r1	; 0x800080 <__TEXT_REGION_LENGTH__+0x7f8080>
	TCCR1B = (1 << CS12);	// Prescaler 256
  f4:	84 e0       	ldi	r24, 0x04	; 4
  f6:	80 93 81 00 	sts	0x0081, r24	; 0x800081 <__TEXT_REGION_LENGTH__+0x7f8081>
	
	// Interrupciones del TIMER2
	TCCR2A = 0x00;			// Modo Normal
  fa:	10 92 b0 00 	sts	0x00B0, r1	; 0x8000b0 <__TEXT_REGION_LENGTH__+0x7f80b0>
	TCCR2B = (1 << CS22) | (1 << CS21) | (1 << CS20);		// Prescaler 1024
  fe:	87 e0       	ldi	r24, 0x07	; 7
 100:	80 93 b1 00 	sts	0x00B1, r24	; 0x8000b1 <__TEXT_REGION_LENGTH__+0x7f80b1>
	sei();
 104:	78 94       	sei
 106:	08 95       	ret

00000108 <multiplexado>:
}

void multiplexado()
{
	PORTB = 0x00;
 108:	15 b8       	out	0x05, r1	; 5
	if (estado_actual == 0b0001) // mostrar LEDS en PORTD
 10a:	80 91 10 01 	lds	r24, 0x0110	; 0x800110 <estado_actual>
 10e:	81 30       	cpi	r24, 0x01	; 1
 110:	91 f4       	brne	.+36     	; 0x136 <multiplexado+0x2e>
	{
		out_LEDS = ((contador1 << 4) | contador2);
 112:	80 91 17 01 	lds	r24, 0x0117	; 0x800117 <contador1>
 116:	20 e1       	ldi	r18, 0x10	; 16
 118:	82 9f       	mul	r24, r18
 11a:	c0 01       	movw	r24, r0
 11c:	11 24       	eor	r1, r1
 11e:	90 91 16 01 	lds	r25, 0x0116	; 0x800116 <contador2>
 122:	89 2b       	or	r24, r25
 124:	80 93 15 01 	sts	0x0115, r24	; 0x800115 <out_LEDS>
		PORTD = out_LEDS;
 128:	80 91 15 01 	lds	r24, 0x0115	; 0x800115 <out_LEDS>
 12c:	8b b9       	out	0x0b, r24	; 11
		PORTB |= LEDS;
 12e:	85 b1       	in	r24, 0x05	; 5
 130:	82 60       	ori	r24, 0x02	; 2
 132:	85 b9       	out	0x05, r24	; 5
 134:	08 95       	ret
	}
	else // mostrar DISPLAY en PORTD
	{
		mostrar_display(reloj);  // Librería Display 7 Segmentos
 136:	80 91 11 01 	lds	r24, 0x0111	; 0x800111 <reloj>
 13a:	90 e0       	ldi	r25, 0x00	; 0
 13c:	0e 94 53 00 	call	0xa6	; 0xa6 <mostrar_display>
		PORTB |= DISPLAY;
 140:	85 b1       	in	r24, 0x05	; 5
 142:	81 60       	ori	r24, 0x01	; 1
 144:	85 b9       	out	0x05, r24	; 5
 146:	08 95       	ret

00000148 <cuenta_regresiva>:
	}
}

void cuenta_regresiva()
{
	reloj--;
 148:	80 91 11 01 	lds	r24, 0x0111	; 0x800111 <reloj>
 14c:	81 50       	subi	r24, 0x01	; 1
 14e:	80 93 11 01 	sts	0x0111, r24	; 0x800111 <reloj>
	bandera_tm1 = 0;
 152:	10 92 14 01 	sts	0x0114, r1	; 0x800114 <bandera_tm1>
	if (reloj == 0)
 156:	80 91 11 01 	lds	r24, 0x0111	; 0x800111 <reloj>
 15a:	81 11       	cpse	r24, r1
 15c:	05 c0       	rjmp	.+10     	; 0x168 <cuenta_regresiva+0x20>
	{
		start = 0x01;
 15e:	81 e0       	ldi	r24, 0x01	; 1
 160:	80 93 13 01 	sts	0x0113, r24	; 0x800113 <start>
		TIMSK1 = (0 << TOIE1);
 164:	10 92 6f 00 	sts	0x006F, r1	; 0x80006f <__TEXT_REGION_LENGTH__+0x7f806f>
 168:	08 95       	ret

0000016a <main>:
/****************************************/
// Función principal

int main(void)
{
    setup();	// Se llama a la configuracion del arduino
 16a:	0e 94 5b 00 	call	0xb6	; 0xb6 <setup>
	
    while (1) 
    {
		// Cuenta regresiva para comenzar
		if (bandera_tm1)
 16e:	80 91 14 01 	lds	r24, 0x0114	; 0x800114 <bandera_tm1>
 172:	88 23       	and	r24, r24
 174:	19 f0       	breq	.+6      	; 0x17c <main+0x12>
		{
			cuenta_regresiva();
 176:	0e 94 a4 00 	call	0x148	; 0x148 <cuenta_regresiva>
 17a:	12 c0       	rjmp	.+36     	; 0x1a0 <main+0x36>
		}
		else if (start)
 17c:	80 91 13 01 	lds	r24, 0x0113	; 0x800113 <start>
 180:	88 23       	and	r24, r24
 182:	71 f0       	breq	.+28     	; 0x1a0 <main+0x36>
		{
			reloj = winner;	 
 184:	80 91 12 01 	lds	r24, 0x0112	; 0x800112 <__data_end>
 188:	80 93 11 01 	sts	0x0111, r24	; 0x800111 <reloj>
			if ((winner == 1) || (winner == 2))
 18c:	80 91 12 01 	lds	r24, 0x0112	; 0x800112 <__data_end>
 190:	81 30       	cpi	r24, 0x01	; 1
 192:	21 f0       	breq	.+8      	; 0x19c <main+0x32>
 194:	80 91 12 01 	lds	r24, 0x0112	; 0x800112 <__data_end>
 198:	82 30       	cpi	r24, 0x02	; 2
 19a:	11 f4       	brne	.+4      	; 0x1a0 <main+0x36>
			{
				start = 0x00;
 19c:	10 92 13 01 	sts	0x0113, r1	; 0x800113 <start>
			}
		}
		// Multiplexado
		multiplexado();
 1a0:	0e 94 84 00 	call	0x108	; 0x108 <multiplexado>
    }
 1a4:	e4 cf       	rjmp	.-56     	; 0x16e <main+0x4>

000001a6 <__vector_4>:
}

/****************************************/
// Subrutinas de Interrupcion
ISR(PCINT1_vect)
{
 1a6:	1f 92       	push	r1
 1a8:	0f 92       	push	r0
 1aa:	0f b6       	in	r0, 0x3f	; 63
 1ac:	0f 92       	push	r0
 1ae:	11 24       	eor	r1, r1
 1b0:	8f 93       	push	r24
 1b2:	9f 93       	push	r25
	if (start) // Si el juego ya ha comenzado
 1b4:	80 91 13 01 	lds	r24, 0x0113	; 0x800113 <start>
 1b8:	88 23       	and	r24, r24
 1ba:	99 f1       	breq	.+102    	; 0x222 <__vector_4+0x7c>
	{
		if(!(PINC & 0b00000010)) // Si es PC1 aumenta Jugador 1
 1bc:	31 99       	sbic	0x06, 1	; 6
 1be:	17 c0       	rjmp	.+46     	; 0x1ee <__vector_4+0x48>
		{
			if (contador1 == 0)
 1c0:	80 91 17 01 	lds	r24, 0x0117	; 0x800117 <contador1>
 1c4:	81 11       	cpse	r24, r1
 1c6:	04 c0       	rjmp	.+8      	; 0x1d0 <__vector_4+0x2a>
			{
				contador1 = 0x01;
 1c8:	81 e0       	ldi	r24, 0x01	; 1
 1ca:	80 93 17 01 	sts	0x0117, r24	; 0x800117 <contador1>
 1ce:	0f c0       	rjmp	.+30     	; 0x1ee <__vector_4+0x48>
			}
			else{
				contador1 = ((contador1 << 1) & 0x0F);
 1d0:	80 91 17 01 	lds	r24, 0x0117	; 0x800117 <contador1>
 1d4:	90 e0       	ldi	r25, 0x00	; 0
 1d6:	88 0f       	add	r24, r24
 1d8:	99 1f       	adc	r25, r25
 1da:	8f 70       	andi	r24, 0x0F	; 15
 1dc:	80 93 17 01 	sts	0x0117, r24	; 0x800117 <contador1>
				if (contador1 == 0x08)
 1e0:	80 91 17 01 	lds	r24, 0x0117	; 0x800117 <contador1>
 1e4:	88 30       	cpi	r24, 0x08	; 8
 1e6:	19 f4       	brne	.+6      	; 0x1ee <__vector_4+0x48>
				{
					winner = 1;
 1e8:	81 e0       	ldi	r24, 0x01	; 1
 1ea:	80 93 12 01 	sts	0x0112, r24	; 0x800112 <__data_end>
				}
			}
		}
		if(!(PINC & 0b00000100)) // Si es PC2 aumenta Jugador 2
 1ee:	32 99       	sbic	0x06, 2	; 6
 1f0:	23 c0       	rjmp	.+70     	; 0x238 <__vector_4+0x92>
		{
			if (contador2 == 0)
 1f2:	80 91 16 01 	lds	r24, 0x0116	; 0x800116 <contador2>
 1f6:	81 11       	cpse	r24, r1
 1f8:	04 c0       	rjmp	.+8      	; 0x202 <__vector_4+0x5c>
			{
				contador2 = 0x01;
 1fa:	81 e0       	ldi	r24, 0x01	; 1
 1fc:	80 93 16 01 	sts	0x0116, r24	; 0x800116 <contador2>
 200:	1b c0       	rjmp	.+54     	; 0x238 <__vector_4+0x92>
			}
			else{
				contador2 = ((contador2 << 1) & 0x0F);
 202:	80 91 16 01 	lds	r24, 0x0116	; 0x800116 <contador2>
 206:	90 e0       	ldi	r25, 0x00	; 0
 208:	88 0f       	add	r24, r24
 20a:	99 1f       	adc	r25, r25
 20c:	8f 70       	andi	r24, 0x0F	; 15
 20e:	80 93 16 01 	sts	0x0116, r24	; 0x800116 <contador2>
				if (contador2 == 0x08)
 212:	80 91 16 01 	lds	r24, 0x0116	; 0x800116 <contador2>
 216:	88 30       	cpi	r24, 0x08	; 8
 218:	79 f4       	brne	.+30     	; 0x238 <__vector_4+0x92>
				{
					winner = 2;
 21a:	82 e0       	ldi	r24, 0x02	; 2
 21c:	80 93 12 01 	sts	0x0112, r24	; 0x800112 <__data_end>
 220:	0b c0       	rjmp	.+22     	; 0x238 <__vector_4+0x92>
				}
			}
		}
	}
	else if(!(PINC & 0b00000001)) //Si el juego NO ha comenzado y es PC0
 222:	30 99       	sbic	0x06, 0	; 6
 224:	09 c0       	rjmp	.+18     	; 0x238 <__vector_4+0x92>
	{
		TCNT1 = 34286;	// Interrupción cada 0.5s
 226:	8e ee       	ldi	r24, 0xEE	; 238
 228:	95 e8       	ldi	r25, 0x85	; 133
 22a:	90 93 85 00 	sts	0x0085, r25	; 0x800085 <__TEXT_REGION_LENGTH__+0x7f8085>
 22e:	80 93 84 00 	sts	0x0084, r24	; 0x800084 <__TEXT_REGION_LENGTH__+0x7f8084>
		TIMSK1 = (1 << TOIE1);
 232:	81 e0       	ldi	r24, 0x01	; 1
 234:	80 93 6f 00 	sts	0x006F, r24	; 0x80006f <__TEXT_REGION_LENGTH__+0x7f806f>
		//TCNT2 = 100;		// Interrupcion cada 0.05s
		//TIMSK2 = (1 << TOIE2);
	}
	
}
 238:	9f 91       	pop	r25
 23a:	8f 91       	pop	r24
 23c:	0f 90       	pop	r0
 23e:	0f be       	out	0x3f, r0	; 63
 240:	0f 90       	pop	r0
 242:	1f 90       	pop	r1
 244:	18 95       	reti

00000246 <__vector_16>:

ISR(TIMER0_OVF_vect)
{
 246:	1f 92       	push	r1
 248:	0f 92       	push	r0
 24a:	0f b6       	in	r0, 0x3f	; 63
 24c:	0f 92       	push	r0
 24e:	11 24       	eor	r1, r1
 250:	8f 93       	push	r24
	if (estado_actual == 0b0001)
 252:	80 91 10 01 	lds	r24, 0x0110	; 0x800110 <estado_actual>
 256:	81 30       	cpi	r24, 0x01	; 1
 258:	21 f4       	brne	.+8      	; 0x262 <__vector_16+0x1c>
	{
		estado_actual = 0b0010; // LEDS
 25a:	82 e0       	ldi	r24, 0x02	; 2
 25c:	80 93 10 01 	sts	0x0110, r24	; 0x800110 <estado_actual>
 260:	03 c0       	rjmp	.+6      	; 0x268 <__vector_16+0x22>
	}
	else
	{
		estado_actual = 0b0001;	// DISPLAY
 262:	81 e0       	ldi	r24, 0x01	; 1
 264:	80 93 10 01 	sts	0x0110, r24	; 0x800110 <estado_actual>
	}
}
 268:	8f 91       	pop	r24
 26a:	0f 90       	pop	r0
 26c:	0f be       	out	0x3f, r0	; 63
 26e:	0f 90       	pop	r0
 270:	1f 90       	pop	r1
 272:	18 95       	reti

00000274 <__vector_13>:

ISR(TIMER1_OVF_vect)
{
 274:	1f 92       	push	r1
 276:	0f 92       	push	r0
 278:	0f b6       	in	r0, 0x3f	; 63
 27a:	0f 92       	push	r0
 27c:	11 24       	eor	r1, r1
 27e:	8f 93       	push	r24
	bandera_tm1 = 1;
 280:	81 e0       	ldi	r24, 0x01	; 1
 282:	80 93 14 01 	sts	0x0114, r24	; 0x800114 <bandera_tm1>
}
 286:	8f 91       	pop	r24
 288:	0f 90       	pop	r0
 28a:	0f be       	out	0x3f, r0	; 63
 28c:	0f 90       	pop	r0
 28e:	1f 90       	pop	r1
 290:	18 95       	reti

00000292 <_exit>:
 292:	f8 94       	cli

00000294 <__stop_program>:
 294:	ff cf       	rjmp	.-2      	; 0x294 <__stop_program>
